(dp0
S'num_points'
p1
I24
sS'smallest_number'
p2
cnumpy.core.multiarray
scalar
p3
(cnumpy
dtype
p4
(S'f8'
p5
I0
I1
tp6
Rp7
(I3
S'<'
p8
NNNI-1
I-1
I0
tp9
bS']\xaf\xe2\x14\x1f\x8c\xea6'
p10
tp11
Rp12
sS'ratio'
p13
F1.05
s.